target datalayout = "e-m:e-p270:32:32-p271:32:32-p272:64:64-i64:64-i128:128-f80:128-n8:16:32:64-S128"
target triple = "x86_64-pc-linux-gnu"

%class.dtTileCache = type { i32, i32, ptr, ptr, ptr, i32, i32, %struct.dtTileCacheParams, ptr, ptr, ptr, ptr, ptr, [64 x %"struct.dtTileCache::ObstacleRequest"], i32, [64 x i32], i32 }
%struct.dtTileCacheParams = type { [3 x float], float, float, i32, i32, float, float, float, float, i32, i32 }
%"struct.dtTileCache::ObstacleRequest" = type { i32, i32 }
%struct.dtTileCacheObstacle = type { %union.anon, [8 x i32], [8 x i32], i16, i8, i8, i8, i8, ptr }
%union.anon = type { %struct.dtObstacleOrientedBox }
%struct.dtObstacleOrientedBox = type { [3 x float], [3 x float], [2 x float] }
%struct.dtObstacleCylinder = type { [3 x float], float, float }

; Function Attrs: mustprogress nounwind uwtable
define linkonce_odr noundef i32 @_ZNK11dtTileCache16encodeObstacleIdEjj(ptr noundef nonnull align 8 dereferenceable(912) %0, i32 noundef %1, i32 noundef %2) #2 comdat align 2 {
  %4 = alloca ptr, align 8
  %5 = alloca i32, align 4
  %6 = alloca i32, align 4
  store ptr %0, ptr %4, align 8
  store i32 %1, ptr %5, align 4
  store i32 %2, ptr %6, align 4
  %7 = load i32, ptr %5, align 4
  %8 = shl i32 %7, 16
  %9 = load i32, ptr %6, align 4
  %10 = or i32 %8, %9
  ret i32 %10
}

; Function Attrs: mustprogress uwtable
define noundef i32 @_ZNK11dtTileCache14getObstacleRefEPK19dtTileCacheObstacle(ptr noundef nonnull align 8 dereferenceable(912) %0, ptr noundef %1) #0 align 2 {
  %3 = alloca i32, align 4
  %4 = alloca ptr, align 8
  %5 = alloca ptr, align 8
  %6 = alloca i32, align 4
  store ptr %0, ptr %4, align 8
  store ptr %1, ptr %5, align 8
  %7 = load ptr, ptr %4, align 8
  %8 = load ptr, ptr %5, align 8
  %9 = icmp ne ptr %8, null
  br i1 %9, label %11, label %10

10:                                               ; preds = %2
  store i32 0, ptr %3, align 4
  br label %26

11:                                               ; preds = %2
  %12 = load ptr, ptr %5, align 8
  %13 = getelementptr inbounds %class.dtTileCache, ptr %7, i32 0, i32 11
  %14 = load ptr, ptr %13, align 8
  %15 = ptrtoint ptr %12 to i64
  %16 = ptrtoint ptr %14 to i64
  %17 = sub i64 %15, %16
  %18 = sdiv exact i64 %17, 112
  %19 = trunc i64 %18 to i32
  store i32 %19, ptr %6, align 4
  %20 = load ptr, ptr %5, align 8
  %21 = getelementptr inbounds %struct.dtTileCacheObstacle, ptr %20, i32 0, i32 3
  %22 = load i16, ptr %21, align 8
  %23 = zext i16 %22 to i32
  %24 = load i32, ptr %6, align 4
  %25 = call noundef i32 @_ZNK11dtTileCache16encodeObstacleIdEjj(ptr noundef nonnull align 8 dereferenceable(912) %7, i32 noundef %23, i32 noundef %24)
  store i32 %25, ptr %3, align 4
  br label %26

26:                                               ; preds = %11, %10
  %27 = load i32, ptr %3, align 4
  ret i32 %27
}

; Function Attrs: mustprogress nounwind uwtable
define linkonce_odr void @_Z7dtVcopyPfPKf(ptr noundef %0, ptr noundef %1) #2 comdat {
  %3 = alloca ptr, align 8
  %4 = alloca ptr, align 8
  store ptr %0, ptr %3, align 8
  store ptr %1, ptr %4, align 8
  %5 = load ptr, ptr %4, align 8
  %6 = getelementptr inbounds float, ptr %5, i64 0
  %7 = load float, ptr %6, align 4
  %8 = load ptr, ptr %3, align 8
  %9 = getelementptr inbounds float, ptr %8, i64 0
  store float %7, ptr %9, align 4
  %10 = load ptr, ptr %4, align 8
  %11 = getelementptr inbounds float, ptr %10, i64 1
  %12 = load float, ptr %11, align 4
  %13 = load ptr, ptr %3, align 8
  %14 = getelementptr inbounds float, ptr %13, i64 1
  store float %12, ptr %14, align 4
  %15 = load ptr, ptr %4, align 8
  %16 = getelementptr inbounds float, ptr %15, i64 2
  %17 = load float, ptr %16, align 4
  %18 = load ptr, ptr %3, align 8
  %19 = getelementptr inbounds float, ptr %18, i64 2
  store float %17, ptr %19, align 4
  ret void
}

; Function Attrs: mustprogress uwtable
define noundef i32 @_ZN11dtTileCache11addObstacleEPKfffPj(ptr noundef nonnull align 8 dereferenceable(912) %0, ptr noundef %1, float noundef %2, float noundef %3, ptr noundef %4) #0 align 2 {
  %6 = alloca i32, align 4
  %7 = alloca ptr, align 8
  %8 = alloca ptr, align 8
  %9 = alloca float, align 4
  %10 = alloca float, align 4
  %11 = alloca ptr, align 8
  %12 = alloca ptr, align 8
  %13 = alloca i16, align 2
  %14 = alloca ptr, align 8
  store ptr %0, ptr %7, align 8
  store ptr %1, ptr %8, align 8
  store float %2, ptr %9, align 4
  store float %3, ptr %10, align 4
  store ptr %4, ptr %11, align 8
  %15 = load ptr, ptr %7, align 8
  %16 = getelementptr inbounds %class.dtTileCache, ptr %15, i32 0, i32 14
  %17 = load i32, ptr %16, align 8
  %18 = icmp sge i32 %17, 64
  br i1 %18, label %19, label %20

19:                                               ; preds = %5
  store i32 -2147483632, ptr %6, align 4
  br label %83

20:                                               ; preds = %5
  store ptr null, ptr %12, align 8
  %21 = getelementptr inbounds %class.dtTileCache, ptr %15, i32 0, i32 12
  %22 = load ptr, ptr %21, align 8
  %23 = icmp ne ptr %22, null
  br i1 %23, label %24, label %33

24:                                               ; preds = %20
  %25 = getelementptr inbounds %class.dtTileCache, ptr %15, i32 0, i32 12
  %26 = load ptr, ptr %25, align 8
  store ptr %26, ptr %12, align 8
  %27 = load ptr, ptr %12, align 8
  %28 = getelementptr inbounds %struct.dtTileCacheObstacle, ptr %27, i32 0, i32 8
  %29 = load ptr, ptr %28, align 8
  %30 = getelementptr inbounds %class.dtTileCache, ptr %15, i32 0, i32 12
  store ptr %29, ptr %30, align 8
  %31 = load ptr, ptr %12, align 8
  %32 = getelementptr inbounds %struct.dtTileCacheObstacle, ptr %31, i32 0, i32 8
  store ptr null, ptr %32, align 8
  br label %33

33:                                               ; preds = %24, %20
  %34 = load ptr, ptr %12, align 8
  %35 = icmp ne ptr %34, null
  br i1 %35, label %37, label %36

36:                                               ; preds = %33
  store i32 -2147483644, ptr %6, align 4
  br label %83

37:                                               ; preds = %33
  %38 = load ptr, ptr %12, align 8
  %39 = getelementptr inbounds %struct.dtTileCacheObstacle, ptr %38, i32 0, i32 3
  %40 = load i16, ptr %39, align 8
  store i16 %40, ptr %13, align 2
  %41 = load ptr, ptr %12, align 8
  call void @llvm.memset.p0.i64(ptr align 8 %41, i8 0, i64 112, i1 false)
  %42 = load i16, ptr %13, align 2
  %43 = load ptr, ptr %12, align 8
  %44 = getelementptr inbounds %struct.dtTileCacheObstacle, ptr %43, i32 0, i32 3
  store i16 %42, ptr %44, align 8
  %45 = load ptr, ptr %12, align 8
  %46 = getelementptr inbounds %struct.dtTileCacheObstacle, ptr %45, i32 0, i32 5
  store i8 1, ptr %46, align 1
  %47 = load ptr, ptr %12, align 8
  %48 = getelementptr inbounds %struct.dtTileCacheObstacle, ptr %47, i32 0, i32 4
  store i8 0, ptr %48, align 2
  %49 = load ptr, ptr %12, align 8
  %50 = getelementptr inbounds %struct.dtTileCacheObstacle, ptr %49, i32 0, i32 0
  %51 = getelementptr inbounds %struct.dtObstacleCylinder, ptr %50, i32 0, i32 0
  %52 = getelementptr inbounds [3 x float], ptr %51, i64 0, i64 0
  %53 = load ptr, ptr %8, align 8
  call void @_Z7dtVcopyPfPKf(ptr noundef %52, ptr noundef %53)
  %54 = load float, ptr %9, align 4
  %55 = load ptr, ptr %12, align 8
  %56 = getelementptr inbounds %struct.dtTileCacheObstacle, ptr %55, i32 0, i32 0
  %57 = getelementptr inbounds %struct.dtObstacleCylinder, ptr %56, i32 0, i32 1
  store float %54, ptr %57, align 4
  %58 = load float, ptr %10, align 4
  %59 = load ptr, ptr %12, align 8
  %60 = getelementptr inbounds %struct.dtTileCacheObstacle, ptr %59, i32 0, i32 0
  %61 = getelementptr inbounds %struct.dtObstacleCylinder, ptr %60, i32 0, i32 2
  store float %58, ptr %61, align 8
  %62 = getelementptr inbounds %class.dtTileCache, ptr %15, i32 0, i32 13
  %63 = getelementptr inbounds %class.dtTileCache, ptr %15, i32 0, i32 14
  %64 = load i32, ptr %63, align 8
  %65 = add nsw i32 %64, 1
  store i32 %65, ptr %63, align 8
  %66 = sext i32 %64 to i64
  %67 = getelementptr inbounds [64 x %"struct.dtTileCache::ObstacleRequest"], ptr %62, i64 0, i64 %66
  store ptr %67, ptr %14, align 8
  %68 = load ptr, ptr %14, align 8
  call void @llvm.memset.p0.i64(ptr align 4 %68, i8 0, i64 8, i1 false)
  %69 = load ptr, ptr %14, align 8
  %70 = getelementptr inbounds %"struct.dtTileCache::ObstacleRequest", ptr %69, i32 0, i32 0
  store i32 0, ptr %70, align 4
  %71 = load ptr, ptr %12, align 8
  %72 = call noundef i32 @_ZNK11dtTileCache14getObstacleRefEPK19dtTileCacheObstacle(ptr noundef nonnull align 8 dereferenceable(912) %15, ptr noundef %71)
  %73 = load ptr, ptr %14, align 8
  %74 = getelementptr inbounds %"struct.dtTileCache::ObstacleRequest", ptr %73, i32 0, i32 1
  store i32 %72, ptr %74, align 4
  %75 = load ptr, ptr %11, align 8
  %76 = icmp ne ptr %75, null
  br i1 %76, label %77, label %82

77:                                               ; preds = %37
  %78 = load ptr, ptr %14, align 8
  %79 = getelementptr inbounds %"struct.dtTileCache::ObstacleRequest", ptr %78, i32 0, i32 1
  %80 = load i32, ptr %79, align 4
  %81 = load ptr, ptr %11, align 8
  store i32 %80, ptr %81, align 4
  br label %82

82:                                               ; preds = %77, %37
  store i32 1073741824, ptr %6, align 4
  br label %83

83:                                               ; preds = %82, %36, %19
  %84 = load i32, ptr %6, align 4
  ret i32 %84
}