; Function Attrs: mustprogress nofree norecurse nosync nounwind willreturn memory(readwrite, inaccessiblemem: none) uwtable
define noundef range(i32 1073741824, -2147483631) i32 @_ZN11dtTileCache11addObstacleEPKfffPj(ptr noundef nonnull align 8 captures(none) dereferenceable(912) %0, ptr noundef readonly captures(none) %1, float noundef %2, float noundef %3, ptr noundef writeonly %4) local_unnamed_addr #15 align 2 {
  %6 = getelementptr inbounds nuw i8, ptr %0, i64 648
  %7 = load i32, ptr %6, align 8
  %8 = icmp sgt i32 %7, 63
  br i1 %8, label %.thread, label %9

9:                                                ; preds = %5
  %10 = getelementptr inbounds nuw i8, ptr %0, i64 128
  %11 = load ptr, ptr %10, align 8
  %.not = icmp eq ptr %11, null
  br i1 %.not, label %.thread, label %_ZNK11dtTileCache14getObstacleRefEPK19dtTileCacheObstacle.exit

_ZNK11dtTileCache14getObstacleRefEPK19dtTileCacheObstacle.exit: ; preds = %9
  %12 = getelementptr inbounds nuw i8, ptr %11, i64 104
  %13 = load ptr, ptr %12, align 8
  store ptr %13, ptr %10, align 8
  %14 = getelementptr inbounds nuw i8, ptr %11, i64 96
  %15 = load i16, ptr %14, align 8
  tail call void @llvm.memset.p0.i64(ptr noundef nonnull align 8 dereferenceable(112) %11, i8 0, i64 112, i1 false)
  store i16 %15, ptr %14, align 8
  %16 = getelementptr inbounds nuw i8, ptr %11, i64 99
  store i8 1, ptr %16, align 1
  %17 = load float, ptr %1, align 4
  store float %17, ptr %11, align 4
  %18 = getelementptr inbounds nuw i8, ptr %1, i64 4
  %19 = load float, ptr %18, align 4
  %20 = getelementptr inbounds nuw i8, ptr %11, i64 4
  store float %19, ptr %20, align 4
  %21 = getelementptr inbounds nuw i8, ptr %1, i64 8
  %22 = load float, ptr %21, align 4
  %23 = getelementptr inbounds nuw i8, ptr %11, i64 8
  store float %22, ptr %23, align 4
  %24 = getelementptr inbounds nuw i8, ptr %11, i64 12
  store float %2, ptr %24, align 4
  %25 = getelementptr inbounds nuw i8, ptr %11, i64 16
  store float %3, ptr %25, align 8
  %26 = getelementptr inbounds nuw i8, ptr %0, i64 136
  %27 = load i32, ptr %6, align 8
  %28 = add nsw i32 %27, 1
  store i32 %28, ptr %6, align 8
  %29 = sext i32 %27 to i64
  %30 = getelementptr inbounds [64 x %"struct.dtTileCache::ObstacleRequest"], ptr %26, i64 0, i64 %29
  store i64 0, ptr %30, align 8
  %31 = getelementptr inbounds nuw i8, ptr %0, i64 120
  %32 = load ptr, ptr %31, align 8
  %33 = ptrtoint ptr %11 to i64
  %34 = ptrtoint ptr %32 to i64
  %35 = sub i64 %33, %34
  %36 = sdiv exact i64 %35, 112
  %37 = trunc i64 %36 to i32
  %38 = load i16, ptr %14, align 8
  %39 = zext i16 %38 to i32
  %40 = shl nuw i32 %39, 16
  %41 = or i32 %40, %37
  %42 = getelementptr inbounds nuw i8, ptr %30, i64 4
  store i32 %41, ptr %42, align 4
  %.not27 = icmp eq ptr %4, null
  br i1 %.not27, label %.thread, label %43

43:                                               ; preds = %_ZNK11dtTileCache14getObstacleRefEPK19dtTileCacheObstacle.exit
  store i32 %41, ptr %4, align 4
  br label %.thread

.thread:                                          ; preds = %9, %_ZNK11dtTileCache14getObstacleRefEPK19dtTileCacheObstacle.exit, %43, %5
  %.0 = phi i32 [ -2147483632, %5 ], [ 1073741824, %43 ], [ 1073741824, %_ZNK11dtTileCache14getObstacleRefEPK19dtTileCacheObstacle.exit ], [ -2147483644, %9 ]
  ret i32 %.0
}